; Function Attrs: mustprogress noreturn nounwind uwtable
define dso_local void @_ZN4llvm22report_bad_alloc_errorEPKcb(ptr noundef %0, i1 noundef zeroext %1) local_unnamed_addr #1 {
  %3 = tail call noundef i32 @pthread_mutex_lock(ptr noundef nonnull align 8 dereferenceable(40) @_ZL25BadAllocErrorHandlerMutex) #12
  %.not.i.i = icmp eq i32 %3, 0
  br i1 %.not.i.i, label %_ZNSt10lock_guardISt5mutexEC2ERS0_.exit, label %4

4:                                                ; preds = %2
  tail call void @_ZSt20__throw_system_errori(i32 noundef %3) #13
  unreachable

_ZNSt10lock_guardISt5mutexEC2ERS0_.exit:          ; preds = %2
  %5 = load ptr, ptr @_ZL20BadAllocErrorHandler, align 8
  %6 = load ptr, ptr @_ZL28BadAllocErrorHandlerUserData, align 8
  %7 = tail call noundef i32 @pthread_mutex_unlock(ptr noundef nonnull align 8 dereferenceable(40) @_ZL25BadAllocErrorHandlerMutex) #12
  %.not = icmp eq ptr %5, null
  br i1 %.not, label %9, label %8

8:                                                ; preds = %_ZNSt10lock_guardISt5mutexEC2ERS0_.exit
  tail call void %5(ptr noundef %6, ptr noundef %0, i1 noundef zeroext %1) #12
  unreachable

9:                                                ; preds = %_ZNSt10lock_guardISt5mutexEC2ERS0_.exit
  %10 = tail call i64 @write(i32 noundef 2, ptr noundef nonnull @.str.2, i64 noundef 26) #12
  %11 = tail call i64 @strlen(ptr noundef nonnull dereferenceable(1) %0) #16
  %12 = tail call i64 @write(i32 noundef 2, ptr noundef nonnull %0, i64 noundef %11) #12
  %13 = tail call i64 @write(i32 noundef 2, ptr noundef nonnull @.str.1, i64 noundef 1) #12
  tail call void @abort() #13
  unreachable
}